target datalayout = "e-m:e-p270:32:32-p271:32:32-p272:64:64-i64:64-i128:128-f80:128-n8:16:32:64-S128"
target triple = "x86_64-pc-linux-gnu"

%struct.ACLCategoryItem = type { ptr, i64 }

@nextCommandCategory = internal global i64 0, align 8
@ACLCommandCategories = internal global ptr null, align 8

; Function Attrs: nounwind uwtable
define dso_local i32 @ACLAddCommandCategory(ptr noundef %0, i64 noundef %1) #0 {
  %3 = alloca i32, align 4
  %4 = alloca ptr, align 8
  %5 = alloca i64, align 8
  store ptr %0, ptr %4, align 8, !tbaa !5
  store i64 %1, ptr %5, align 8, !tbaa !10
  %6 = load i64, ptr @nextCommandCategory, align 8, !tbaa !10
  %7 = icmp uge i64 %6, 64
  br i1 %7, label %8, label %9

8:                                                ; preds = %2
  store i32 0, ptr %3, align 4
  br label %31

9:                                                ; preds = %2
  %10 = load ptr, ptr %4, align 8, !tbaa !5
  %11 = call noalias ptr @zstrdup(ptr noundef %10)
  %12 = load ptr, ptr @ACLCommandCategories, align 8, !tbaa !12
  %13 = load i64, ptr @nextCommandCategory, align 8, !tbaa !10
  %14 = getelementptr inbounds nuw %struct.ACLCategoryItem, ptr %12, i64 %13
  %15 = getelementptr inbounds nuw %struct.ACLCategoryItem, ptr %14, i32 0, i32 0
  store ptr %11, ptr %15, align 8, !tbaa !14
  %16 = load i64, ptr %5, align 8, !tbaa !10
  %17 = icmp ne i64 %16, 0
  br i1 %17, label %18, label %20

18:                                               ; preds = %9
  %19 = load i64, ptr %5, align 8, !tbaa !10
  br label %23

20:                                               ; preds = %9
  %21 = load i64, ptr @nextCommandCategory, align 8, !tbaa !10
  %22 = shl i64 1, %21
  br label %23

23:                                               ; preds = %20, %18
  %24 = phi i64 [ %19, %18 ], [ %22, %20 ]
  %25 = load ptr, ptr @ACLCommandCategories, align 8, !tbaa !12
  %26 = load i64, ptr @nextCommandCategory, align 8, !tbaa !10
  %27 = getelementptr inbounds nuw %struct.ACLCategoryItem, ptr %25, i64 %26
  %28 = getelementptr inbounds nuw %struct.ACLCategoryItem, ptr %27, i32 0, i32 1
  store i64 %24, ptr %28, align 8, !tbaa !16
  %29 = load i64, ptr @nextCommandCategory, align 8, !tbaa !10
  %30 = add i64 %29, 1
  store i64 %30, ptr @nextCommandCategory, align 8, !tbaa !10
  store i32 1, ptr %3, align 4
  br label %31

31:                                               ; preds = %23, %8
  %32 = load i32, ptr %3, align 4
  ret i32 %32
}