; Function Attrs: nounwind uwtable
define dso_local range(i32 0, 2) i32 @ACLAddCommandCategory(ptr noundef %0, i64 noundef %1) local_unnamed_addr #0 {
  %3 = load i64, ptr @nextCommandCategory, align 8, !tbaa !5
  %4 = icmp ugt i64 %3, 63
  br i1 %4, label %14, label %5

5:                                                ; preds = %2
  %6 = tail call noalias ptr @zstrdup(ptr noundef %0) #25
  %7 = load ptr, ptr @ACLCommandCategories, align 8, !tbaa !9
  %8 = load i64, ptr @nextCommandCategory, align 8, !tbaa !5
  %9 = getelementptr inbounds nuw %struct.ACLCategoryItem, ptr %7, i64 %8
  store ptr %6, ptr %9, align 8, !tbaa !12
  %.not = icmp eq i64 %1, 0
  %10 = shl nuw i64 1, %8
  %11 = select i1 %.not, i64 %10, i64 %1
  %12 = getelementptr inbounds nuw %struct.ACLCategoryItem, ptr %7, i64 %8, i32 1
  store i64 %11, ptr %12, align 8, !tbaa !15
  %13 = add i64 %8, 1
  store i64 %13, ptr @nextCommandCategory, align 8, !tbaa !5
  br label %14

14:                                               ; preds = %2, %5
  %.0 = phi i32 [ 1, %5 ], [ 0, %2 ]
  ret i32 %.0
}